target datalayout = "e-m:e-p270:32:32-p271:32:32-p272:64:64-i64:64-i128:128-f80:128-n8:16:32:64-S128"
target triple = "x86_64-pc-linux-gnu"

%struct._packet_info = type { ptr, ptr, i32, i32, %struct.nstime_t, %struct.nstime_t, %struct.nstime_t, i8, ptr, ptr, ptr, ptr, %struct._address, %struct._address, %struct._address, %struct._address, %struct._address, %struct._address, i32, ptr, i8, [3 x i8], %struct.anon, i32, i32, i32, i32, ptr, i8, ptr, ptr, i16, i16, i32, i32, i16, i32, i32, ptr, ptr, ptr, i8, i8, i16, i16, i16, i32, i16, i16, ptr, ptr, ptr, ptr, ptr, i32, i32 }
%struct.nstime_t = type { i64, i32 }
%struct._address = type { i32, i32, ptr, ptr }
%struct.anon = type { i8, [3 x i8] }

@hf_ma_wfp_capture_flow_context = internal global i32 0, align 4
@hf_ma_wfp_capture_payload_length = internal global i32 0, align 4
@ett_ma_wfp_capture_v4 = internal global i32 0, align 4
@proto_ma_wfp_capture2_v6 = internal global i32 0, align 4
@ip_dissector_table = internal global ptr null, align 8
@hf_ip_proto = internal global i32 0, align 4
@.str.380 = private unnamed_addr constant [8 x i8] c"%s (%u)\00", align 1

; Function Attrs: null_pointer_is_valid sspstrong uwtable
define internal i32 @dissect_ma_wfp_capture_v6_common(ptr noundef %0, ptr noundef %1, ptr noundef %2, i32 noundef %3) #0 {
  %5 = alloca ptr, align 8
  %6 = alloca ptr, align 8
  %7 = alloca ptr, align 8
  %8 = alloca i32, align 4
  %9 = alloca ptr, align 8
  %10 = alloca ptr, align 8
  %11 = alloca i32, align 4
  %12 = alloca i32, align 4
  %13 = alloca i32, align 4
  %14 = alloca ptr, align 8
  store ptr %0, ptr %5, align 8
  store ptr %1, ptr %6, align 8
  store ptr %2, ptr %7, align 8
  store i32 %3, ptr %8, align 4
  call void @llvm.lifetime.start.p0(i64 8, ptr %9) #9
  call void @llvm.lifetime.start.p0(i64 8, ptr %10) #9
  call void @llvm.lifetime.start.p0(i64 4, ptr %11) #9
  store i32 0, ptr %11, align 4
  call void @llvm.lifetime.start.p0(i64 4, ptr %12) #9
  call void @llvm.lifetime.start.p0(i64 4, ptr %13) #9
  call void @llvm.lifetime.start.p0(i64 8, ptr %14) #9
  %15 = load ptr, ptr %7, align 8
  %16 = load i32, ptr %8, align 4
  %17 = load ptr, ptr %5, align 8
  %18 = call ptr @proto_tree_add_item(ptr noundef %15, i32 noundef %16, ptr noundef %17, i32 noundef 0, i32 noundef -1, i32 noundef 0)
  store ptr %18, ptr %9, align 8
  %19 = load ptr, ptr %9, align 8
  %20 = load i32, ptr @ett_ma_wfp_capture_v4, align 4
  %21 = call ptr @proto_item_add_subtree(ptr noundef %19, i32 noundef %20)
  store ptr %21, ptr %10, align 8
  %22 = load ptr, ptr %10, align 8
  %23 = load ptr, ptr %5, align 8
  %24 = load ptr, ptr %6, align 8
  %25 = load i32, ptr %11, align 4
  call void @add_ipv6_src_address(ptr noundef %22, ptr noundef %23, ptr noundef %24, i32 noundef %25)
  %26 = load i32, ptr %11, align 4
  %27 = add i32 %26, 16
  store i32 %27, ptr %11, align 4
  %28 = load ptr, ptr %10, align 8
  %29 = load ptr, ptr %5, align 8
  %30 = load ptr, ptr %6, align 8
  %31 = load i32, ptr %11, align 4
  call void @add_ipv6_dst_address(ptr noundef %28, ptr noundef %29, ptr noundef %30, i32 noundef %31)
  %32 = load i32, ptr %11, align 4
  %33 = add i32 %32, 16
  store i32 %33, ptr %11, align 4
  %34 = load ptr, ptr %10, align 8
  %35 = load i32, ptr @hf_ip_proto, align 4
  %36 = load ptr, ptr %5, align 8
  %37 = load i32, ptr %11, align 4
  %38 = call ptr @proto_tree_add_item_ret_uint(ptr noundef %34, i32 noundef %35, ptr noundef %36, i32 noundef %37, i32 noundef 1, i32 noundef 0, ptr noundef %12)
  %39 = load ptr, ptr %6, align 8
  %40 = getelementptr inbounds nuw %struct._packet_info, ptr %39, i32 0, i32 1
  %41 = load ptr, ptr %40, align 8
  %42 = load i32, ptr %12, align 4
  %43 = call ptr @ipprotostr(i32 noundef %42)
  %44 = load i32, ptr %12, align 4
  call void (ptr, i32, ptr, ...) @col_add_fstr(ptr noundef %41, i32 noundef 25, ptr noundef @.str.380, ptr noundef %43, i32 noundef %44)
  %45 = load i32, ptr %11, align 4
  %46 = add i32 %45, 1
  store i32 %46, ptr %11, align 4
  %47 = load i32, ptr %8, align 4
  %48 = load i32, ptr @proto_ma_wfp_capture2_v6, align 4
  %49 = icmp eq i32 %47, %48
  br i1 %49, label %50, label %58

50:                                               ; preds = %4
  %51 = load ptr, ptr %10, align 8
  %52 = load i32, ptr @hf_ma_wfp_capture_flow_context, align 4
  %53 = load ptr, ptr %5, align 8
  %54 = load i32, ptr %11, align 4
  %55 = call ptr @proto_tree_add_item(ptr noundef %51, i32 noundef %52, ptr noundef %53, i32 noundef %54, i32 noundef 8, i32 noundef -2147483648)
  %56 = load i32, ptr %11, align 4
  %57 = add i32 %56, 8
  store i32 %57, ptr %11, align 4
  br label %58

58:                                               ; preds = %50, %4
  %59 = load ptr, ptr %10, align 8
  %60 = load i32, ptr @hf_ma_wfp_capture_payload_length, align 4
  %61 = load ptr, ptr %5, align 8
  %62 = load i32, ptr %11, align 4
  %63 = call ptr @proto_tree_add_item_ret_uint(ptr noundef %59, i32 noundef %60, ptr noundef %61, i32 noundef %62, i32 noundef 2, i32 noundef -2147483648, ptr noundef %13)
  %64 = load i32, ptr %11, align 4
  %65 = add i32 %64, 2
  store i32 %65, ptr %11, align 4
  %66 = load ptr, ptr %5, align 8
  %67 = load i32, ptr %11, align 4
  %68 = call ptr @tvb_new_subset_remaining(ptr noundef %66, i32 noundef %67)
  store ptr %68, ptr %14, align 8
  %69 = load ptr, ptr %9, align 8
  %70 = load i32, ptr %11, align 4
  call void @proto_item_set_len(ptr noundef %69, i32 noundef %70)
  %71 = load ptr, ptr @ip_dissector_table, align 8
  %72 = load i32, ptr %12, align 4
  %73 = load ptr, ptr %14, align 8
  %74 = load ptr, ptr %6, align 8
  %75 = load ptr, ptr %7, align 8
  %76 = call i32 @dissector_try_uint_with_data(ptr noundef %71, i32 noundef %72, ptr noundef %73, ptr noundef %74, ptr noundef %75, i1 noundef zeroext true, ptr noundef null)
  %77 = icmp ne i32 %76, 0
  br i1 %77, label %83, label %78

78:                                               ; preds = %58
  %79 = load ptr, ptr %14, align 8
  %80 = load ptr, ptr %6, align 8
  %81 = load ptr, ptr %7, align 8
  %82 = call i32 @call_data_dissector(ptr noundef %79, ptr noundef %80, ptr noundef %81)
  br label %83

83:                                               ; preds = %78, %58
  %84 = load ptr, ptr %5, align 8
  %85 = call i32 @tvb_captured_length(ptr noundef %84)
  call void @llvm.lifetime.end.p0(i64 8, ptr %14) #9
  call void @llvm.lifetime.end.p0(i64 4, ptr %13) #9
  call void @llvm.lifetime.end.p0(i64 4, ptr %12) #9
  call void @llvm.lifetime.end.p0(i64 4, ptr %11) #9
  call void @llvm.lifetime.end.p0(i64 8, ptr %10) #9
  call void @llvm.lifetime.end.p0(i64 8, ptr %9) #9
  ret i32 %85
}